target datalayout = "e-m:e-p270:32:32-p271:32:32-p272:64:64-i64:64-i128:128-f80:128-n8:16:32:64-S128"
target triple = "x86_64-pc-linux-gnu"

; Function Attrs: nounwind uwtable
define ptr @ossl_d2i_PUBKEY_legacy(ptr noundef %0, ptr noundef %1, i64 noundef %2) #0 {
  %4 = alloca ptr, align 8
  %5 = alloca ptr, align 8
  %6 = alloca i64, align 8
  store ptr %0, ptr %4, align 8, !tbaa !37
  store ptr %1, ptr %5, align 8, !tbaa !3
  store i64 %2, ptr %6, align 8, !tbaa !8
  %7 = load ptr, ptr %4, align 8, !tbaa !37
  %8 = load ptr, ptr %5, align 8, !tbaa !3
  %9 = load i64, ptr %6, align 8, !tbaa !8
  %10 = call ptr @d2i_PUBKEY_int(ptr noundef %7, ptr noundef %8, i64 noundef %9, ptr noundef null, ptr noundef null, i32 noundef 1, ptr noundef @d2i_X509_PUBKEY)
  ret ptr %10
}

; Function Attrs: nounwind uwtable
define ptr @ossl_d2i_DHx_PUBKEY(ptr noundef %0, ptr noundef %1, i64 noundef %2) #0 {
  %4 = alloca ptr, align 8
  %5 = alloca ptr, align 8
  %6 = alloca ptr, align 8
  %7 = alloca i64, align 8
  %8 = alloca ptr, align 8
  %9 = alloca ptr, align 8
  %10 = alloca ptr, align 8
  %11 = alloca i32, align 4
  store ptr %0, ptr %5, align 8, !tbaa !76
  store ptr %1, ptr %6, align 8, !tbaa !3
  store i64 %2, ptr %7, align 8, !tbaa !8
  call void @llvm.lifetime.start.p0(i64 8, ptr %8) #5
  call void @llvm.lifetime.start.p0(i64 8, ptr %9) #5
  store ptr null, ptr %9, align 8, !tbaa !78
  call void @llvm.lifetime.start.p0(i64 8, ptr %10) #5
  %12 = load ptr, ptr %6, align 8, !tbaa !3
  %13 = load ptr, ptr %12, align 8, !tbaa !12
  store ptr %13, ptr %10, align 8, !tbaa !12
  %14 = load i64, ptr %7, align 8, !tbaa !8
  %15 = call ptr @ossl_d2i_PUBKEY_legacy(ptr noundef null, ptr noundef %10, i64 noundef %14)
  store ptr %15, ptr %8, align 8, !tbaa !46
  %16 = load ptr, ptr %8, align 8, !tbaa !46
  %17 = icmp eq ptr %16, null
  br i1 %17, label %18, label %19

18:                                               ; preds = %3
  store ptr null, ptr %4, align 8
  store i32 1, ptr %11, align 4
  br label %43

19:                                               ; preds = %3
  %20 = load ptr, ptr %8, align 8, !tbaa !46
  %21 = call i32 @EVP_PKEY_get_id(ptr noundef %20)
  %22 = icmp eq i32 %21, 920
  br i1 %22, label %23, label %26

23:                                               ; preds = %19
  %24 = load ptr, ptr %8, align 8, !tbaa !46
  %25 = call ptr @EVP_PKEY_get1_DH(ptr noundef %24)
  store ptr %25, ptr %9, align 8, !tbaa !78
  br label %26

26:                                               ; preds = %23, %19
  %27 = load ptr, ptr %8, align 8, !tbaa !46
  call void @EVP_PKEY_free(ptr noundef %27)
  %28 = load ptr, ptr %9, align 8, !tbaa !78
  %29 = icmp eq ptr %28, null
  br i1 %29, label %30, label %31

30:                                               ; preds = %26
  store ptr null, ptr %4, align 8
  store i32 1, ptr %11, align 4
  br label %43

31:                                               ; preds = %26
  %32 = load ptr, ptr %10, align 8, !tbaa !12
  %33 = load ptr, ptr %6, align 8, !tbaa !3
  store ptr %32, ptr %33, align 8, !tbaa !12
  %34 = load ptr, ptr %5, align 8, !tbaa !76
  %35 = icmp ne ptr %34, null
  br i1 %35, label %36, label %41

36:                                               ; preds = %31
  %37 = load ptr, ptr %5, align 8, !tbaa !76
  %38 = load ptr, ptr %37, align 8, !tbaa !78
  call void @DH_free(ptr noundef %38)
  %39 = load ptr, ptr %9, align 8, !tbaa !78
  %40 = load ptr, ptr %5, align 8, !tbaa !76
  store ptr %39, ptr %40, align 8, !tbaa !78
  br label %41

41:                                               ; preds = %36, %31
  %42 = load ptr, ptr %9, align 8, !tbaa !78
  store ptr %42, ptr %4, align 8
  store i32 1, ptr %11, align 4
  br label %43

43:                                               ; preds = %41, %30, %18
  call void @llvm.lifetime.end.p0(i64 8, ptr %10) #5
  call void @llvm.lifetime.end.p0(i64 8, ptr %9) #5
  call void @llvm.lifetime.end.p0(i64 8, ptr %8) #5
  %44 = load ptr, ptr %4, align 8
  ret ptr %44
}